
secure_bios.bignum.o:     file format elf64-littleaarch64


Disassembly of section .keywords:

0000000000000000 <secure_bios_bignum_header>:
   0:	61654824 	.word	0x61654824
   4:	4c525564 	.word	0x4c525564
   8:	7468203a 	.word	0x7468203a
   c:	3a737074 	.word	0x3a737074
  10:	6d632f2f 	.word	0x6d632f2f
  14:	7478652d 	.word	0x7478652d
  18:	7665642e 	.word	0x7665642e
  1c:	696e6f2e 	.word	0x696e6f2e
  20:	2e6f6574 	.word	0x2e6f6574
  24:	2f6d6f63 	.word	0x2f6d6f63
  28:	2f6e7673 	.word	0x2f6e7673
  2c:	6f6e616e 	.word	0x6f6e616e
  30:	2f766564 	.word	0x2f766564
  34:	6b636170 	.word	0x6b636170
  38:	73656761 	.word	0x73656761
  3c:	6365732f 	.word	0x6365732f
  40:	5f657275 	.word	0x5f657275
  44:	736f6962 	.word	0x736f6962
  48:	6172622f 	.word	0x6172622f
  4c:	6568636e 	.word	0x6568636e
  50:	61682f73 	.word	0x61682f73
  54:	636f7073 	.word	0x636f7073
  58:	6b69682f 	.word	0x6b69682f
  5c:	732f7965 	.word	0x732f7965
  60:	72756365 	.word	0x72756365
  64:	69625f65 	.word	0x69625f65
  68:	702f736f 	.word	0x702f736f
  6c:	622f696b 	.word	0x622f696b
  70:	756e6769 	.word	0x756e6769
  74:	20682e6d 	.word	0x20682e6d
  78:	52242024 	.word	0x52242024
  7c:	73697665 	.word	0x73697665
  80:	3a6e6f69 	.word	0x3a6e6f69
  84:	34373120 	.word	0x34373120
  88:	24203131 	.word	0x24203131
  8c:	00000000 	.word	0x00000000

0000000000000090 <secure_bios_bignum_code>:
  90:	61654824 	.word	0x61654824
  94:	4c525564 	.word	0x4c525564
  98:	7468203a 	.word	0x7468203a
  9c:	3a737074 	.word	0x3a737074
  a0:	6d632f2f 	.word	0x6d632f2f
  a4:	7478652d 	.word	0x7478652d
  a8:	7665642e 	.word	0x7665642e
  ac:	696e6f2e 	.word	0x696e6f2e
  b0:	2e6f6574 	.word	0x2e6f6574
  b4:	2f6d6f63 	.word	0x2f6d6f63
  b8:	2f6e7673 	.word	0x2f6e7673
  bc:	6f6e616e 	.word	0x6f6e616e
  c0:	2f766564 	.word	0x2f766564
  c4:	6b636170 	.word	0x6b636170
  c8:	73656761 	.word	0x73656761
  cc:	6365732f 	.word	0x6365732f
  d0:	5f657275 	.word	0x5f657275
  d4:	736f6962 	.word	0x736f6962
  d8:	6172622f 	.word	0x6172622f
  dc:	6568636e 	.word	0x6568636e
  e0:	61682f73 	.word	0x61682f73
  e4:	636f7073 	.word	0x636f7073
  e8:	6b69682f 	.word	0x6b69682f
  ec:	732f7965 	.word	0x732f7965
  f0:	72756365 	.word	0x72756365
  f4:	69625f65 	.word	0x69625f65
  f8:	702f736f 	.word	0x702f736f
  fc:	622f696b 	.word	0x622f696b
 100:	756e6769 	.word	0x756e6769
 104:	20632e6d 	.word	0x20632e6d
 108:	52242024 	.word	0x52242024
 10c:	73697665 	.word	0x73697665
 110:	3a6e6f69 	.word	0x3a6e6f69
 114:	30363220 	.word	0x30363220
 118:	24203530 	.word	0x24203530
 11c:	00000000 	.word	0x00000000

Disassembly of section .text.internal_mul:

0000000000000000 <internal_mul>:
   0:	d10103ff 	sub	sp, sp, #0x40
   4:	f9000fe0 	str	x0, [sp,#24]
   8:	f9000be1 	str	x1, [sp,#16]
   c:	f90007e2 	str	x2, [sp,#8]
  10:	b90007e3 	str	w3, [sp,#4]
  14:	b9003bff 	str	wzr, [sp,#56]
  18:	14000009 	b	3c <internal_mul+0x3c>
  1c:	b9803be0 	ldrsw	x0, [sp,#56]
  20:	d37ff800 	lsl	x0, x0, #1
  24:	f94007e1 	ldr	x1, [sp,#8]
  28:	8b000020 	add	x0, x1, x0
  2c:	7900001f 	strh	wzr, [x0]
  30:	b9403be0 	ldr	w0, [sp,#56]
  34:	11000400 	add	w0, w0, #0x1
  38:	b9003be0 	str	w0, [sp,#56]
  3c:	b94007e0 	ldr	w0, [sp,#4]
  40:	531f7801 	lsl	w1, w0, #1
  44:	b9403be0 	ldr	w0, [sp,#56]
  48:	6b00003f 	cmp	w1, w0
  4c:	54fffe8c 	b.gt	1c <internal_mul+0x1c>
  50:	b94007e0 	ldr	w0, [sp,#4]
  54:	51000400 	sub	w0, w0, #0x1
  58:	b9003fe0 	str	w0, [sp,#60]
  5c:	14000043 	b	168 <internal_mul+0x168>
  60:	b9803fe0 	ldrsw	x0, [sp,#60]
  64:	d37ff800 	lsl	x0, x0, #1
  68:	f9400fe1 	ldr	x1, [sp,#24]
  6c:	8b000020 	add	x0, x1, x0
  70:	79400000 	ldrh	w0, [x0]
  74:	53003c00 	uxth	w0, w0
  78:	f90017e0 	str	x0, [sp,#40]
  7c:	f9001bff 	str	xzr, [sp,#48]
  80:	b94007e0 	ldr	w0, [sp,#4]
  84:	51000400 	sub	w0, w0, #0x1
  88:	b9003be0 	str	w0, [sp,#56]
  8c:	1400002a 	b	134 <internal_mul+0x134>
  90:	b9803be0 	ldrsw	x0, [sp,#56]
  94:	d37ff800 	lsl	x0, x0, #1
  98:	f9400be1 	ldr	x1, [sp,#16]
  9c:	8b000020 	add	x0, x1, x0
  a0:	79400000 	ldrh	w0, [x0]
  a4:	53003c01 	uxth	w1, w0
  a8:	f94017e0 	ldr	x0, [sp,#40]
  ac:	9b007c20 	mul	x0, x1, x0
  b0:	f9401be1 	ldr	x1, [sp,#48]
  b4:	8b000020 	add	x0, x1, x0
  b8:	f9001be0 	str	x0, [sp,#48]
  bc:	b9403fe1 	ldr	w1, [sp,#60]
  c0:	b9403be0 	ldr	w0, [sp,#56]
  c4:	0b000020 	add	w0, w1, w0
  c8:	93407c00 	sxtw	x0, w0
  cc:	91000400 	add	x0, x0, #0x1
  d0:	d37ff800 	lsl	x0, x0, #1
  d4:	f94007e1 	ldr	x1, [sp,#8]
  d8:	8b000020 	add	x0, x1, x0
  dc:	79400000 	ldrh	w0, [x0]
  e0:	53003c00 	uxth	w0, w0
  e4:	f9401be1 	ldr	x1, [sp,#48]
  e8:	8b000020 	add	x0, x1, x0
  ec:	f9001be0 	str	x0, [sp,#48]
  f0:	b9403fe1 	ldr	w1, [sp,#60]
  f4:	b9403be0 	ldr	w0, [sp,#56]
  f8:	0b000020 	add	w0, w1, w0
  fc:	93407c00 	sxtw	x0, w0
 100:	91000400 	add	x0, x0, #0x1
 104:	d37ff800 	lsl	x0, x0, #1
 108:	f94007e1 	ldr	x1, [sp,#8]
 10c:	8b000020 	add	x0, x1, x0
 110:	f9401be1 	ldr	x1, [sp,#48]
 114:	53003c21 	uxth	w1, w1
 118:	79000001 	strh	w1, [x0]
 11c:	f9401be0 	ldr	x0, [sp,#48]
 120:	d350fc00 	lsr	x0, x0, #16
 124:	f9001be0 	str	x0, [sp,#48]
 128:	b9403be0 	ldr	w0, [sp,#56]
 12c:	51000400 	sub	w0, w0, #0x1
 130:	b9003be0 	str	w0, [sp,#56]
 134:	b9403be0 	ldr	w0, [sp,#56]
 138:	6b1f001f 	cmp	w0, wzr
 13c:	54fffaaa 	b.ge	90 <internal_mul+0x90>
 140:	b9803fe0 	ldrsw	x0, [sp,#60]
 144:	d37ff800 	lsl	x0, x0, #1
 148:	f94007e1 	ldr	x1, [sp,#8]
 14c:	8b000020 	add	x0, x1, x0
 150:	f9401be1 	ldr	x1, [sp,#48]
 154:	53003c21 	uxth	w1, w1
 158:	79000001 	strh	w1, [x0]
 15c:	b9403fe0 	ldr	w0, [sp,#60]
 160:	51000400 	sub	w0, w0, #0x1
 164:	b9003fe0 	str	w0, [sp,#60]
 168:	b9403fe0 	ldr	w0, [sp,#60]
 16c:	6b1f001f 	cmp	w0, wzr
 170:	54fff78a 	b.ge	60 <internal_mul+0x60>
 174:	910103ff 	add	sp, sp, #0x40
 178:	d65f03c0 	ret

Disassembly of section .text.internal_add_shifted:

0000000000000000 <internal_add_shifted>:
   0:	d100c3ff 	sub	sp, sp, #0x30
   4:	f90007e0 	str	x0, [sp,#8]
   8:	b90007e1 	str	w1, [sp,#4]
   c:	b90003e2 	str	w2, [sp]
  10:	b94003e0 	ldr	w0, [sp]
  14:	11003c01 	add	w1, w0, #0xf
  18:	6b1f001f 	cmp	w0, wzr
  1c:	1a80b020 	csel	w0, w1, w0, lt
  20:	13047c00 	asr	w0, w0, #4
  24:	11000400 	add	w0, w0, #0x1
  28:	b9002fe0 	str	w0, [sp,#44]
  2c:	b94003e1 	ldr	w1, [sp]
  30:	131f7c20 	asr	w0, w1, #31
  34:	531c7c00 	lsr	w0, w0, #28
  38:	0b000021 	add	w1, w1, w0
  3c:	12000c21 	and	w1, w1, #0xf
  40:	4b000020 	sub	w0, w1, w0
  44:	b9001fe0 	str	w0, [sp,#28]
  48:	b9401fe0 	ldr	w0, [sp,#28]
  4c:	b94007e1 	ldr	w1, [sp,#4]
  50:	1ac02020 	lsl	w0, w1, w0
  54:	2a0003e0 	mov	w0, w0
  58:	f90013e0 	str	x0, [sp,#32]
  5c:	14000017 	b	b8 <internal_add_shifted+0xb8>
  60:	b9802fe0 	ldrsw	x0, [sp,#44]
  64:	d37ff800 	lsl	x0, x0, #1
  68:	f94007e1 	ldr	x1, [sp,#8]
  6c:	8b000020 	add	x0, x1, x0
  70:	79400000 	ldrh	w0, [x0]
  74:	53003c00 	uxth	w0, w0
  78:	f94013e1 	ldr	x1, [sp,#32]
  7c:	8b000020 	add	x0, x1, x0
  80:	f90013e0 	str	x0, [sp,#32]
  84:	b9802fe0 	ldrsw	x0, [sp,#44]
  88:	d37ff800 	lsl	x0, x0, #1
  8c:	f94007e1 	ldr	x1, [sp,#8]
  90:	8b000020 	add	x0, x1, x0
  94:	f94013e1 	ldr	x1, [sp,#32]
  98:	53003c21 	uxth	w1, w1
  9c:	79000001 	strh	w1, [x0]
  a0:	f94013e0 	ldr	x0, [sp,#32]
  a4:	d350fc00 	lsr	x0, x0, #16
  a8:	f90013e0 	str	x0, [sp,#32]
  ac:	b9402fe0 	ldr	w0, [sp,#44]
  b0:	11000400 	add	w0, w0, #0x1
  b4:	b9002fe0 	str	w0, [sp,#44]
  b8:	f94013e0 	ldr	x0, [sp,#32]
  bc:	eb1f001f 	cmp	x0, xzr
  c0:	54fffd01 	b.ne	60 <internal_add_shifted+0x60>
  c4:	9100c3ff 	add	sp, sp, #0x30
  c8:	d65f03c0 	ret

Disassembly of section .text.internal_mod:

0000000000000000 <internal_mod>:
   0:	a9b97bfd 	stp	x29, x30, [sp,#-112]!
   4:	910003fd 	mov	x29, sp
   8:	f9001fa0 	str	x0, [x29,#56]
   c:	b90037a1 	str	w1, [x29,#52]
  10:	f90017a2 	str	x2, [x29,#40]
  14:	b90033a3 	str	w3, [x29,#48]
  18:	f90013a4 	str	x4, [x29,#32]
  1c:	b9001fa5 	str	w5, [x29,#28]
  20:	f94017a0 	ldr	x0, [x29,#40]
  24:	79400000 	ldrh	w0, [x0]
  28:	790097a0 	strh	w0, [x29,#74]
  2c:	b94033a0 	ldr	w0, [x29,#48]
  30:	7100041f 	cmp	w0, #0x1
  34:	540000ad 	b.le	48 <internal_mod+0x48>
  38:	f94017a0 	ldr	x0, [x29,#40]
  3c:	79400400 	ldrh	w0, [x0,#2]
  40:	7900dfa0 	strh	w0, [x29,#110]
  44:	14000002 	b	4c <internal_mod+0x4c>
  48:	7900dfbf 	strh	wzr, [x29,#110]
  4c:	b90067bf 	str	wzr, [x29,#100]
  50:	140000de 	b	3c8 <internal_mod+0x3c8>
  54:	b94067a0 	ldr	w0, [x29,#100]
  58:	6b1f001f 	cmp	w0, wzr
  5c:	54000061 	b.ne	68 <internal_mod+0x68>
  60:	b9006bbf 	str	wzr, [x29,#104]
  64:	1400000e 	b	9c <internal_mod+0x9c>
  68:	b98067a0 	ldrsw	x0, [x29,#100]
  6c:	d37ff800 	lsl	x0, x0, #1
  70:	d1000800 	sub	x0, x0, #0x2
  74:	f9401fa1 	ldr	x1, [x29,#56]
  78:	8b000020 	add	x0, x1, x0
  7c:	79400000 	ldrh	w0, [x0]
  80:	b9006ba0 	str	w0, [x29,#104]
  84:	b98067a0 	ldrsw	x0, [x29,#100]
  88:	d37ff800 	lsl	x0, x0, #1
  8c:	d1000800 	sub	x0, x0, #0x2
  90:	f9401fa1 	ldr	x1, [x29,#56]
  94:	8b000020 	add	x0, x1, x0
  98:	7900001f 	strh	wzr, [x0]
  9c:	b94037a0 	ldr	w0, [x29,#52]
  a0:	51000401 	sub	w1, w0, #0x1
  a4:	b94067a0 	ldr	w0, [x29,#100]
  a8:	6b00003f 	cmp	w1, w0
  ac:	54000061 	b.ne	b8 <internal_mod+0xb8>
  b0:	b9004fbf 	str	wzr, [x29,#76]
  b4:	14000008 	b	d4 <internal_mod+0xd4>
  b8:	b98067a0 	ldrsw	x0, [x29,#100]
  bc:	91000400 	add	x0, x0, #0x1
  c0:	d37ff800 	lsl	x0, x0, #1
  c4:	f9401fa1 	ldr	x1, [x29,#56]
  c8:	8b000020 	add	x0, x1, x0
  cc:	79400000 	ldrh	w0, [x0]
  d0:	b9004fa0 	str	w0, [x29,#76]
  d4:	b9406ba0 	ldr	w0, [x29,#104]
  d8:	d370bc01 	lsl	x1, x0, #16
  dc:	b98067a0 	ldrsw	x0, [x29,#100]
  e0:	d37ff800 	lsl	x0, x0, #1
  e4:	f9401fa2 	ldr	x2, [x29,#56]
  e8:	8b000040 	add	x0, x2, x0
  ec:	79400000 	ldrh	w0, [x0]
  f0:	53003c00 	uxth	w0, w0
  f4:	8b000020 	add	x0, x1, x0
  f8:	f9002fa0 	str	x0, [x29,#88]
  fc:	794097a0 	ldrh	w0, [x29,#74]
 100:	f9402fa1 	ldr	x1, [x29,#88]
 104:	9ac00820 	udiv	x0, x1, x0
 108:	b90057a0 	str	w0, [x29,#84]
 10c:	794097a1 	ldrh	w1, [x29,#74]
 110:	f9402fa0 	ldr	x0, [x29,#88]
 114:	9ac10802 	udiv	x2, x0, x1
 118:	9b017c41 	mul	x1, x2, x1
 11c:	cb010000 	sub	x0, x0, x1
 120:	b90047a0 	str	w0, [x29,#68]
 124:	7940dfa1 	ldrh	w1, [x29,#110]
 128:	b94057a0 	ldr	w0, [x29,#84]
 12c:	9b007c20 	mul	x0, x1, x0
 130:	f9002fa0 	str	x0, [x29,#88]
 134:	b94047a0 	ldr	w0, [x29,#68]
 138:	d370bc01 	lsl	x1, x0, #16
 13c:	b9404fa0 	ldr	w0, [x29,#76]
 140:	8b000021 	add	x1, x1, x0
 144:	f9402fa0 	ldr	x0, [x29,#88]
 148:	eb00003f 	cmp	x1, x0
 14c:	54000362 	b.cs	1b8 <internal_mod+0x1b8>
 150:	b94057a0 	ldr	w0, [x29,#84]
 154:	51000400 	sub	w0, w0, #0x1
 158:	b90057a0 	str	w0, [x29,#84]
 15c:	7940dfa0 	ldrh	w0, [x29,#110]
 160:	f9402fa1 	ldr	x1, [x29,#88]
 164:	cb000020 	sub	x0, x1, x0
 168:	f9002fa0 	str	x0, [x29,#88]
 16c:	794097a1 	ldrh	w1, [x29,#74]
 170:	b94047a0 	ldr	w0, [x29,#68]
 174:	0b000020 	add	w0, w1, w0
 178:	12003c00 	and	w0, w0, #0xffff
 17c:	b90047a0 	str	w0, [x29,#68]
 180:	794097a1 	ldrh	w1, [x29,#74]
 184:	b94047a0 	ldr	w0, [x29,#68]
 188:	6b00003f 	cmp	w1, w0
 18c:	54000168 	b.hi	1b8 <internal_mod+0x1b8>
 190:	b94047a0 	ldr	w0, [x29,#68]
 194:	d370bc01 	lsl	x1, x0, #16
 198:	b9404fa0 	ldr	w0, [x29,#76]
 19c:	8b000021 	add	x1, x1, x0
 1a0:	f9402fa0 	ldr	x0, [x29,#88]
 1a4:	eb00003f 	cmp	x1, x0
 1a8:	54000082 	b.cs	1b8 <internal_mod+0x1b8>
 1ac:	b94057a0 	ldr	w0, [x29,#84]
 1b0:	51000400 	sub	w0, w0, #0x1
 1b4:	b90057a0 	str	w0, [x29,#84]
 1b8:	b90053bf 	str	wzr, [x29,#80]
 1bc:	b94033a0 	ldr	w0, [x29,#48]
 1c0:	51000400 	sub	w0, w0, #0x1
 1c4:	b90063a0 	str	w0, [x29,#96]
 1c8:	14000037 	b	2a4 <internal_mod+0x2a4>
 1cc:	b94057a1 	ldr	w1, [x29,#84]
 1d0:	b98063a0 	ldrsw	x0, [x29,#96]
 1d4:	d37ff800 	lsl	x0, x0, #1
 1d8:	f94017a2 	ldr	x2, [x29,#40]
 1dc:	8b000040 	add	x0, x2, x0
 1e0:	79400000 	ldrh	w0, [x0]
 1e4:	53003c00 	uxth	w0, w0
 1e8:	9b007c20 	mul	x0, x1, x0
 1ec:	f9002fa0 	str	x0, [x29,#88]
 1f0:	b94053a0 	ldr	w0, [x29,#80]
 1f4:	f9402fa1 	ldr	x1, [x29,#88]
 1f8:	8b000020 	add	x0, x1, x0
 1fc:	f9002fa0 	str	x0, [x29,#88]
 200:	f9402fa0 	ldr	x0, [x29,#88]
 204:	d350fc00 	lsr	x0, x0, #16
 208:	b90053a0 	str	w0, [x29,#80]
 20c:	f9402fa0 	ldr	x0, [x29,#88]
 210:	53003c01 	uxth	w1, w0
 214:	b94067a2 	ldr	w2, [x29,#100]
 218:	b94063a0 	ldr	w0, [x29,#96]
 21c:	0b000040 	add	w0, w2, w0
 220:	93407c00 	sxtw	x0, w0
 224:	d37ff800 	lsl	x0, x0, #1
 228:	f9401fa2 	ldr	x2, [x29,#56]
 22c:	8b000040 	add	x0, x2, x0
 230:	79400000 	ldrh	w0, [x0]
 234:	6b00003f 	cmp	w1, w0
 238:	54000089 	b.ls	248 <internal_mod+0x248>
 23c:	b94053a0 	ldr	w0, [x29,#80]
 240:	11000400 	add	w0, w0, #0x1
 244:	b90053a0 	str	w0, [x29,#80]
 248:	b94067a1 	ldr	w1, [x29,#100]
 24c:	b94063a0 	ldr	w0, [x29,#96]
 250:	0b000020 	add	w0, w1, w0
 254:	93407c00 	sxtw	x0, w0
 258:	d37ff800 	lsl	x0, x0, #1
 25c:	f9401fa1 	ldr	x1, [x29,#56]
 260:	8b000020 	add	x0, x1, x0
 264:	b94067a2 	ldr	w2, [x29,#100]
 268:	b94063a1 	ldr	w1, [x29,#96]
 26c:	0b010041 	add	w1, w2, w1
 270:	93407c21 	sxtw	x1, w1
 274:	d37ff821 	lsl	x1, x1, #1
 278:	f9401fa2 	ldr	x2, [x29,#56]
 27c:	8b010041 	add	x1, x2, x1
 280:	79400022 	ldrh	w2, [x1]
 284:	f9402fa1 	ldr	x1, [x29,#88]
 288:	53003c21 	uxth	w1, w1
 28c:	4b010041 	sub	w1, w2, w1
 290:	53003c21 	uxth	w1, w1
 294:	79000001 	strh	w1, [x0]
 298:	b94063a0 	ldr	w0, [x29,#96]
 29c:	51000400 	sub	w0, w0, #0x1
 2a0:	b90063a0 	str	w0, [x29,#96]
 2a4:	b94063a0 	ldr	w0, [x29,#96]
 2a8:	6b1f001f 	cmp	w0, wzr
 2ac:	54fff90a 	b.ge	1cc <internal_mod+0x1cc>
 2b0:	b94053a1 	ldr	w1, [x29,#80]
 2b4:	b9406ba0 	ldr	w0, [x29,#104]
 2b8:	6b00003f 	cmp	w1, w0
 2bc:	54000620 	b.eq	380 <internal_mod+0x380>
 2c0:	f9002fbf 	str	xzr, [x29,#88]
 2c4:	b94033a0 	ldr	w0, [x29,#48]
 2c8:	51000400 	sub	w0, w0, #0x1
 2cc:	b90063a0 	str	w0, [x29,#96]
 2d0:	14000026 	b	368 <internal_mod+0x368>
 2d4:	b98063a0 	ldrsw	x0, [x29,#96]
 2d8:	d37ff800 	lsl	x0, x0, #1
 2dc:	f94017a1 	ldr	x1, [x29,#40]
 2e0:	8b000020 	add	x0, x1, x0
 2e4:	79400000 	ldrh	w0, [x0]
 2e8:	53003c00 	uxth	w0, w0
 2ec:	f9402fa1 	ldr	x1, [x29,#88]
 2f0:	8b000020 	add	x0, x1, x0
 2f4:	f9002fa0 	str	x0, [x29,#88]
 2f8:	b94067a1 	ldr	w1, [x29,#100]
 2fc:	b94063a0 	ldr	w0, [x29,#96]
 300:	0b000020 	add	w0, w1, w0
 304:	93407c00 	sxtw	x0, w0
 308:	d37ff800 	lsl	x0, x0, #1
 30c:	f9401fa1 	ldr	x1, [x29,#56]
 310:	8b000020 	add	x0, x1, x0
 314:	79400000 	ldrh	w0, [x0]
 318:	53003c00 	uxth	w0, w0
 31c:	f9402fa1 	ldr	x1, [x29,#88]
 320:	8b000020 	add	x0, x1, x0
 324:	f9002fa0 	str	x0, [x29,#88]
 328:	b94067a1 	ldr	w1, [x29,#100]
 32c:	b94063a0 	ldr	w0, [x29,#96]
 330:	0b000020 	add	w0, w1, w0
 334:	93407c00 	sxtw	x0, w0
 338:	d37ff800 	lsl	x0, x0, #1
 33c:	f9401fa1 	ldr	x1, [x29,#56]
 340:	8b000020 	add	x0, x1, x0
 344:	f9402fa1 	ldr	x1, [x29,#88]
 348:	53003c21 	uxth	w1, w1
 34c:	79000001 	strh	w1, [x0]
 350:	f9402fa0 	ldr	x0, [x29,#88]
 354:	d350fc00 	lsr	x0, x0, #16
 358:	f9002fa0 	str	x0, [x29,#88]
 35c:	b94063a0 	ldr	w0, [x29,#96]
 360:	51000400 	sub	w0, w0, #0x1
 364:	b90063a0 	str	w0, [x29,#96]
 368:	b94063a0 	ldr	w0, [x29,#96]
 36c:	6b1f001f 	cmp	w0, wzr
 370:	54fffb2a 	b.ge	2d4 <internal_mod+0x2d4>
 374:	b94057a0 	ldr	w0, [x29,#84]
 378:	51000400 	sub	w0, w0, #0x1
 37c:	b90057a0 	str	w0, [x29,#84]
 380:	f94013a0 	ldr	x0, [x29,#32]
 384:	eb1f001f 	cmp	x0, xzr
 388:	540001a0 	b.eq	3bc <internal_mod+0x3bc>
 38c:	b94037a1 	ldr	w1, [x29,#52]
 390:	b94033a0 	ldr	w0, [x29,#48]
 394:	4b000021 	sub	w1, w1, w0
 398:	b94067a0 	ldr	w0, [x29,#100]
 39c:	4b000020 	sub	w0, w1, w0
 3a0:	531c6c01 	lsl	w1, w0, #4
 3a4:	b9401fa0 	ldr	w0, [x29,#28]
 3a8:	0b000020 	add	w0, w1, w0
 3ac:	2a0003e2 	mov	w2, w0
 3b0:	b94057a1 	ldr	w1, [x29,#84]
 3b4:	f94013a0 	ldr	x0, [x29,#32]
 3b8:	94000000 	bl	0 <internal_mod>
 3bc:	b94067a0 	ldr	w0, [x29,#100]
 3c0:	11000400 	add	w0, w0, #0x1
 3c4:	b90067a0 	str	w0, [x29,#100]
 3c8:	b94037a1 	ldr	w1, [x29,#52]
 3cc:	b94033a0 	ldr	w0, [x29,#48]
 3d0:	4b000021 	sub	w1, w1, w0
 3d4:	b94067a0 	ldr	w0, [x29,#100]
 3d8:	6b00003f 	cmp	w1, w0
 3dc:	54ffe3ca 	b.ge	54 <internal_mod+0x54>
 3e0:	a8c77bfd 	ldp	x29, x30, [sp],#112
 3e4:	d65f03c0 	ret

Disassembly of section .text.newbn:

0000000000000000 <newbn>:
   0:	a9bd7bfd 	stp	x29, x30, [sp,#-48]!
   4:	910003fd 	mov	x29, sp
   8:	b9001fa0 	str	w0, [x29,#28]
   c:	b9401fa0 	ldr	w0, [x29,#28]
  10:	11000400 	add	w0, w0, #0x1
  14:	93407c00 	sxtw	x0, w0
  18:	d37ff800 	lsl	x0, x0, #1
  1c:	d2800201 	mov	x1, #0x10                  	// #16
  20:	94000000 	bl	0 <NMemAlloc_align>
  24:	f90017a0 	str	x0, [x29,#40]
  28:	f94017a0 	ldr	x0, [x29,#40]
  2c:	eb1f001f 	cmp	x0, xzr
  30:	54000061 	b.ne	3c <newbn+0x3c>
  34:	d2800000 	mov	x0, #0x0                   	// #0
  38:	1400000e 	b	70 <newbn+0x70>
  3c:	b9401fa0 	ldr	w0, [x29,#28]
  40:	11000400 	add	w0, w0, #0x1
  44:	93407c00 	sxtw	x0, w0
  48:	d37ff800 	lsl	x0, x0, #1
  4c:	aa0003e2 	mov	x2, x0
  50:	52800001 	mov	w1, #0x0                   	// #0
  54:	f94017a0 	ldr	x0, [x29,#40]
  58:	94000000 	bl	0 <NMemSet>
  5c:	b9401fa0 	ldr	w0, [x29,#28]
  60:	53003c01 	uxth	w1, w0
  64:	f94017a0 	ldr	x0, [x29,#40]
  68:	79000001 	strh	w1, [x0]
  6c:	f94017a0 	ldr	x0, [x29,#40]
  70:	a8c37bfd 	ldp	x29, x30, [sp],#48
  74:	d65f03c0 	ret

Disassembly of section .text.freebn:

0000000000000000 <freebn>:
   0:	a9be7bfd 	stp	x29, x30, [sp,#-32]!
   4:	910003fd 	mov	x29, sp
   8:	f9000fa0 	str	x0, [x29,#24]
   c:	f9400fa0 	ldr	x0, [x29,#24]
  10:	79400000 	ldrh	w0, [x0]
  14:	11000400 	add	w0, w0, #0x1
  18:	93407c00 	sxtw	x0, w0
  1c:	d37ff800 	lsl	x0, x0, #1
  20:	aa0003e2 	mov	x2, x0
  24:	52800001 	mov	w1, #0x0                   	// #0
  28:	f9400fa0 	ldr	x0, [x29,#24]
  2c:	94000000 	bl	0 <NMemSet>
  30:	f9400fa0 	ldr	x0, [x29,#24]
  34:	94000000 	bl	0 <NMemFree>
  38:	a8c27bfd 	ldp	x29, x30, [sp],#32
  3c:	d65f03c0 	ret

Disassembly of section .text.bignum_from_bytes:

0000000000000000 <bignum_from_bytes>:
   0:	a9bc7bfd 	stp	x29, x30, [sp,#-64]!
   4:	910003fd 	mov	x29, sp
   8:	f9000fa0 	str	x0, [x29,#24]
   c:	b90017a1 	str	w1, [x29,#20]
  10:	b94017a0 	ldr	w0, [x29,#20]
  14:	11000400 	add	w0, w0, #0x1
  18:	531f7c01 	lsr	w1, w0, #31
  1c:	0b000020 	add	w0, w1, w0
  20:	13017c00 	asr	w0, w0, #1
  24:	b9003ba0 	str	w0, [x29,#56]
  28:	b9403ba0 	ldr	w0, [x29,#56]
  2c:	94000000 	bl	0 <bignum_from_bytes>
  30:	f9001ba0 	str	x0, [x29,#48]
  34:	52800020 	mov	w0, #0x1                   	// #1
  38:	b9003fa0 	str	w0, [x29,#60]
  3c:	14000009 	b	60 <bignum_from_bytes+0x60>
  40:	b9803fa0 	ldrsw	x0, [x29,#60]
  44:	d37ff800 	lsl	x0, x0, #1
  48:	f9401ba1 	ldr	x1, [x29,#48]
  4c:	8b000020 	add	x0, x1, x0
  50:	7900001f 	strh	wzr, [x0]
  54:	b9403fa0 	ldr	w0, [x29,#60]
  58:	11000400 	add	w0, w0, #0x1
  5c:	b9003fa0 	str	w0, [x29,#60]
  60:	b9403fa1 	ldr	w1, [x29,#60]
  64:	b9403ba0 	ldr	w0, [x29,#56]
  68:	6b00003f 	cmp	w1, w0
  6c:	54fffead 	b.le	40 <bignum_from_bytes+0x40>
  70:	b94017a0 	ldr	w0, [x29,#20]
  74:	b9003fa0 	str	w0, [x29,#60]
  78:	14000036 	b	150 <bignum_from_bytes+0x150>
  7c:	f9400fa0 	ldr	x0, [x29,#24]
  80:	91000401 	add	x1, x0, #0x1
  84:	f9000fa1 	str	x1, [x29,#24]
  88:	39400000 	ldrb	w0, [x0]
  8c:	3900bfa0 	strb	w0, [x29,#47]
  90:	b9403fa0 	ldr	w0, [x29,#60]
  94:	12000000 	and	w0, w0, #0x1
  98:	6b1f001f 	cmp	w0, wzr
  9c:	54000320 	b.eq	100 <bignum_from_bytes+0x100>
  a0:	b9403fa0 	ldr	w0, [x29,#60]
  a4:	531f7c01 	lsr	w1, w0, #31
  a8:	0b000020 	add	w0, w1, w0
  ac:	13017c00 	asr	w0, w0, #1
  b0:	11000401 	add	w1, w0, #0x1
  b4:	93407c21 	sxtw	x1, w1
  b8:	d37ff821 	lsl	x1, x1, #1
  bc:	f9401ba2 	ldr	x2, [x29,#48]
  c0:	8b010041 	add	x1, x2, x1
  c4:	11000400 	add	w0, w0, #0x1
  c8:	93407c00 	sxtw	x0, w0
  cc:	d37ff800 	lsl	x0, x0, #1
  d0:	f9401ba2 	ldr	x2, [x29,#48]
  d4:	8b000040 	add	x0, x2, x0
  d8:	79400000 	ldrh	w0, [x0]
  dc:	13003c02 	sxth	w2, w0
  e0:	3940bfa0 	ldrb	w0, [x29,#47]
  e4:	53185c00 	lsl	w0, w0, #8
  e8:	13003c00 	sxth	w0, w0
  ec:	2a000040 	orr	w0, w2, w0
  f0:	13003c00 	sxth	w0, w0
  f4:	53003c00 	uxth	w0, w0
  f8:	79000020 	strh	w0, [x1]
  fc:	14000015 	b	150 <bignum_from_bytes+0x150>
 100:	b9403fa0 	ldr	w0, [x29,#60]
 104:	531f7c01 	lsr	w1, w0, #31
 108:	0b000020 	add	w0, w1, w0
 10c:	13017c00 	asr	w0, w0, #1
 110:	11000401 	add	w1, w0, #0x1
 114:	93407c21 	sxtw	x1, w1
 118:	d37ff821 	lsl	x1, x1, #1
 11c:	f9401ba2 	ldr	x2, [x29,#48]
 120:	8b010041 	add	x1, x2, x1
 124:	11000400 	add	w0, w0, #0x1
 128:	93407c00 	sxtw	x0, w0
 12c:	d37ff800 	lsl	x0, x0, #1
 130:	f9401ba2 	ldr	x2, [x29,#48]
 134:	8b000040 	add	x0, x2, x0
 138:	79400002 	ldrh	w2, [x0]
 13c:	3940bfa0 	ldrb	w0, [x29,#47]
 140:	53003c00 	uxth	w0, w0
 144:	2a000040 	orr	w0, w2, w0
 148:	53003c00 	uxth	w0, w0
 14c:	79000020 	strh	w0, [x1]
 150:	b9403fa0 	ldr	w0, [x29,#60]
 154:	51000401 	sub	w1, w0, #0x1
 158:	b9003fa1 	str	w1, [x29,#60]
 15c:	6b1f001f 	cmp	w0, wzr
 160:	54fff8e1 	b.ne	7c <bignum_from_bytes+0x7c>
 164:	14000007 	b	180 <bignum_from_bytes+0x180>
 168:	f9401ba0 	ldr	x0, [x29,#48]
 16c:	79400000 	ldrh	w0, [x0]
 170:	51000400 	sub	w0, w0, #0x1
 174:	53003c01 	uxth	w1, w0
 178:	f9401ba0 	ldr	x0, [x29,#48]
 17c:	79000001 	strh	w1, [x0]
 180:	f9401ba0 	ldr	x0, [x29,#48]
 184:	79400000 	ldrh	w0, [x0]
 188:	7100041f 	cmp	w0, #0x1
 18c:	54000149 	b.ls	1b4 <bignum_from_bytes+0x1b4>
 190:	f9401ba0 	ldr	x0, [x29,#48]
 194:	79400000 	ldrh	w0, [x0]
 198:	53003c00 	uxth	w0, w0
 19c:	d37ff800 	lsl	x0, x0, #1
 1a0:	f9401ba1 	ldr	x1, [x29,#48]
 1a4:	8b000020 	add	x0, x1, x0
 1a8:	79400000 	ldrh	w0, [x0]
 1ac:	6b1f001f 	cmp	w0, wzr
 1b0:	54fffdc0 	b.eq	168 <bignum_from_bytes+0x168>
 1b4:	f9401ba0 	ldr	x0, [x29,#48]
 1b8:	a8c47bfd 	ldp	x29, x30, [sp],#64
 1bc:	d65f03c0 	ret

Disassembly of section .text.bytes_from_bignum:

0000000000000000 <bytes_from_bignum>:
   0:	a9bd7bfd 	stp	x29, x30, [sp,#-48]!
   4:	910003fd 	mov	x29, sp
   8:	f9000fa0 	str	x0, [x29,#24]
   c:	f9000ba1 	str	x1, [x29,#16]
  10:	f9400fa0 	ldr	x0, [x29,#24]
  14:	79400000 	ldrh	w0, [x0]
  18:	790057a0 	strh	w0, [x29,#42]
  1c:	794057a0 	ldrh	w0, [x29,#42]
  20:	d37ff800 	lsl	x0, x0, #1
  24:	f9400fa1 	ldr	x1, [x29,#24]
  28:	8b000020 	add	x0, x1, x0
  2c:	79400000 	ldrh	w0, [x0]
  30:	7103fc1f 	cmp	w0, #0xff
  34:	54000128 	b.hi	58 <bytes_from_bignum+0x58>
  38:	794057a0 	ldrh	w0, [x29,#42]
  3c:	531f7800 	lsl	w0, w0, #1
  40:	53003c00 	uxth	w0, w0
  44:	51000400 	sub	w0, w0, #0x1
  48:	53003c01 	uxth	w1, w0
  4c:	f9400ba0 	ldr	x0, [x29,#16]
  50:	79000001 	strh	w1, [x0]
  54:	14000006 	b	6c <bytes_from_bignum+0x6c>
  58:	794057a0 	ldrh	w0, [x29,#42]
  5c:	531f7800 	lsl	w0, w0, #1
  60:	53003c01 	uxth	w1, w0
  64:	f9400ba0 	ldr	x0, [x29,#16]
  68:	79000001 	strh	w1, [x0]
  6c:	f9400ba0 	ldr	x0, [x29,#16]
  70:	79400000 	ldrh	w0, [x0]
  74:	53003c00 	uxth	w0, w0
  78:	d2800201 	mov	x1, #0x10                  	// #16
  7c:	94000000 	bl	0 <NMemAlloc_align>
  80:	f90013a0 	str	x0, [x29,#32]
  84:	52800020 	mov	w0, #0x1                   	// #1
  88:	79005fa0 	strh	w0, [x29,#46]
  8c:	794057a0 	ldrh	w0, [x29,#42]
  90:	79005ba0 	strh	w0, [x29,#44]
  94:	14000037 	b	170 <bytes_from_bignum+0x170>
  98:	79405fa0 	ldrh	w0, [x29,#46]
  9c:	7100041f 	cmp	w0, #0x1
  a0:	540002e1 	b.ne	fc <bytes_from_bignum+0xfc>
  a4:	794057a0 	ldrh	w0, [x29,#42]
  a8:	d37ff800 	lsl	x0, x0, #1
  ac:	f9400fa1 	ldr	x1, [x29,#24]
  b0:	8b000020 	add	x0, x1, x0
  b4:	79400000 	ldrh	w0, [x0]
  b8:	7103fc1f 	cmp	w0, #0xff
  bc:	54000208 	b.hi	fc <bytes_from_bignum+0xfc>
  c0:	79405fa0 	ldrh	w0, [x29,#46]
  c4:	d1000400 	sub	x0, x0, #0x1
  c8:	f94013a1 	ldr	x1, [x29,#32]
  cc:	8b000020 	add	x0, x1, x0
  d0:	79405ba1 	ldrh	w1, [x29,#44]
  d4:	d37ff821 	lsl	x1, x1, #1
  d8:	f9400fa2 	ldr	x2, [x29,#24]
  dc:	8b010041 	add	x1, x2, x1
  e0:	79400021 	ldrh	w1, [x1]
  e4:	53001c21 	uxtb	w1, w1
  e8:	39000001 	strb	w1, [x0]
  ec:	79405fa0 	ldrh	w0, [x29,#46]
  f0:	51000400 	sub	w0, w0, #0x1
  f4:	79005fa0 	strh	w0, [x29,#46]
  f8:	14000018 	b	158 <bytes_from_bignum+0x158>
  fc:	79405fa0 	ldrh	w0, [x29,#46]
 100:	d1000400 	sub	x0, x0, #0x1
 104:	f94013a1 	ldr	x1, [x29,#32]
 108:	8b000020 	add	x0, x1, x0
 10c:	79405ba1 	ldrh	w1, [x29,#44]
 110:	d37ff821 	lsl	x1, x1, #1
 114:	f9400fa2 	ldr	x2, [x29,#24]
 118:	8b010041 	add	x1, x2, x1
 11c:	79400021 	ldrh	w1, [x1]
 120:	53087c21 	lsr	w1, w1, #8
 124:	53003c21 	uxth	w1, w1
 128:	53001c21 	uxtb	w1, w1
 12c:	39000001 	strb	w1, [x0]
 130:	79405fa0 	ldrh	w0, [x29,#46]
 134:	f94013a1 	ldr	x1, [x29,#32]
 138:	8b000020 	add	x0, x1, x0
 13c:	79405ba1 	ldrh	w1, [x29,#44]
 140:	d37ff821 	lsl	x1, x1, #1
 144:	f9400fa2 	ldr	x2, [x29,#24]
 148:	8b010041 	add	x1, x2, x1
 14c:	79400021 	ldrh	w1, [x1]
 150:	53001c21 	uxtb	w1, w1
 154:	39000001 	strb	w1, [x0]
 158:	79405fa0 	ldrh	w0, [x29,#46]
 15c:	11000800 	add	w0, w0, #0x2
 160:	79005fa0 	strh	w0, [x29,#46]
 164:	79405ba0 	ldrh	w0, [x29,#44]
 168:	51000400 	sub	w0, w0, #0x1
 16c:	79005ba0 	strh	w0, [x29,#44]
 170:	f9400ba0 	ldr	x0, [x29,#16]
 174:	79400000 	ldrh	w0, [x0]
 178:	79405fa1 	ldrh	w1, [x29,#46]
 17c:	6b00003f 	cmp	w1, w0
 180:	54fff8c3 	b.cc	98 <bytes_from_bignum+0x98>
 184:	f94013a0 	ldr	x0, [x29,#32]
 188:	a8c37bfd 	ldp	x29, x30, [sp],#48
 18c:	d65f03c0 	ret

Disassembly of section .text.modpow:

0000000000000000 <modpow>:
   0:	a9b87bfd 	stp	x29, x30, [sp,#-128]!
   4:	910003fd 	mov	x29, sp
   8:	f90017a0 	str	x0, [x29,#40]
   c:	f90013a1 	str	x1, [x29,#32]
  10:	f9000fa2 	str	x2, [x29,#24]
  14:	f9400fa0 	ldr	x0, [x29,#24]
  18:	79400000 	ldrh	w0, [x0]
  1c:	b90063a0 	str	w0, [x29,#96]
  20:	b98063a0 	ldrsw	x0, [x29,#96]
  24:	d37ff800 	lsl	x0, x0, #1
  28:	d2800201 	mov	x1, #0x10                  	// #16
  2c:	94000000 	bl	0 <NMemAlloc_align>
  30:	f9002fa0 	str	x0, [x29,#88]
  34:	b90067bf 	str	wzr, [x29,#100]
  38:	14000015 	b	8c <modpow+0x8c>
  3c:	f9400fa0 	ldr	x0, [x29,#24]
  40:	79400000 	ldrh	w0, [x0]
  44:	2a0003e1 	mov	w1, w0
  48:	b94067a0 	ldr	w0, [x29,#100]
  4c:	4b000020 	sub	w0, w1, w0
  50:	93407c00 	sxtw	x0, w0
  54:	d37ff800 	lsl	x0, x0, #1
  58:	f9400fa1 	ldr	x1, [x29,#24]
  5c:	8b000020 	add	x0, x1, x0
  60:	79400000 	ldrh	w0, [x0]
  64:	7900afa0 	strh	w0, [x29,#86]
  68:	b98067a0 	ldrsw	x0, [x29,#100]
  6c:	d37ff800 	lsl	x0, x0, #1
  70:	f9402fa1 	ldr	x1, [x29,#88]
  74:	8b000020 	add	x0, x1, x0
  78:	7940afa1 	ldrh	w1, [x29,#86]
  7c:	79000001 	strh	w1, [x0]
  80:	b94067a0 	ldr	w0, [x29,#100]
  84:	11000400 	add	w0, w0, #0x1
  88:	b90067a0 	str	w0, [x29,#100]
  8c:	b94067a1 	ldr	w1, [x29,#100]
  90:	b94063a0 	ldr	w0, [x29,#96]
  94:	6b00003f 	cmp	w1, w0
  98:	54fffd2b 	b.lt	3c <modpow+0x3c>
  9c:	b9006fbf 	str	wzr, [x29,#108]
  a0:	1400000d 	b	d4 <modpow+0xd4>
  a4:	f9402fa0 	ldr	x0, [x29,#88]
  a8:	79400000 	ldrh	w0, [x0]
  ac:	2a0003e1 	mov	w1, w0
  b0:	b9406fa0 	ldr	w0, [x29,#108]
  b4:	1ac02020 	lsl	w0, w1, w0
  b8:	12110000 	and	w0, w0, #0x8000
  bc:	6b1f001f 	cmp	w0, wzr
  c0:	54000040 	b.eq	c8 <modpow+0xc8>
  c4:	14000007 	b	e0 <modpow+0xe0>
  c8:	b9406fa0 	ldr	w0, [x29,#108]
  cc:	11000400 	add	w0, w0, #0x1
  d0:	b9006fa0 	str	w0, [x29,#108]
  d4:	b9406fa0 	ldr	w0, [x29,#108]
  d8:	7100381f 	cmp	w0, #0xe
  dc:	54fffe4d 	b.le	a4 <modpow+0xa4>
  e0:	b9406fa0 	ldr	w0, [x29,#108]
  e4:	6b1f001f 	cmp	w0, wzr
  e8:	54000700 	b.eq	1c8 <modpow+0x1c8>
  ec:	b9006bbf 	str	wzr, [x29,#104]
  f0:	14000021 	b	174 <modpow+0x174>
  f4:	b9806ba0 	ldrsw	x0, [x29,#104]
  f8:	d37ff800 	lsl	x0, x0, #1
  fc:	f9402fa1 	ldr	x1, [x29,#88]
 100:	8b000020 	add	x0, x1, x0
 104:	b9806ba1 	ldrsw	x1, [x29,#104]
 108:	d37ff821 	lsl	x1, x1, #1
 10c:	f9402fa2 	ldr	x2, [x29,#88]
 110:	8b010041 	add	x1, x2, x1
 114:	79400021 	ldrh	w1, [x1]
 118:	2a0103e2 	mov	w2, w1
 11c:	b9406fa1 	ldr	w1, [x29,#108]
 120:	1ac12041 	lsl	w1, w2, w1
 124:	13003c22 	sxth	w2, w1
 128:	b9806ba1 	ldrsw	x1, [x29,#104]
 12c:	91000421 	add	x1, x1, #0x1
 130:	d37ff821 	lsl	x1, x1, #1
 134:	f9402fa3 	ldr	x3, [x29,#88]
 138:	8b010061 	add	x1, x3, x1
 13c:	79400021 	ldrh	w1, [x1]
 140:	2a0103e4 	mov	w4, w1
 144:	52800203 	mov	w3, #0x10                  	// #16
 148:	b9406fa1 	ldr	w1, [x29,#108]
 14c:	4b010061 	sub	w1, w3, w1
 150:	1ac12881 	asr	w1, w4, w1
 154:	13003c21 	sxth	w1, w1
 158:	2a010041 	orr	w1, w2, w1
 15c:	13003c21 	sxth	w1, w1
 160:	53003c21 	uxth	w1, w1
 164:	79000001 	strh	w1, [x0]
 168:	b9406ba0 	ldr	w0, [x29,#104]
 16c:	11000400 	add	w0, w0, #0x1
 170:	b9006ba0 	str	w0, [x29,#104]
 174:	b94063a0 	ldr	w0, [x29,#96]
 178:	51000401 	sub	w1, w0, #0x1
 17c:	b9406ba0 	ldr	w0, [x29,#104]
 180:	6b00003f 	cmp	w1, w0
 184:	54fffb8c 	b.gt	f4 <modpow+0xf4>
 188:	b98063a0 	ldrsw	x0, [x29,#96]
 18c:	d37ff800 	lsl	x0, x0, #1
 190:	d1000800 	sub	x0, x0, #0x2
 194:	f9402fa1 	ldr	x1, [x29,#88]
 198:	8b000020 	add	x0, x1, x0
 19c:	b98063a1 	ldrsw	x1, [x29,#96]
 1a0:	d37ff821 	lsl	x1, x1, #1
 1a4:	d1000821 	sub	x1, x1, #0x2
 1a8:	f9402fa2 	ldr	x2, [x29,#88]
 1ac:	8b010041 	add	x1, x2, x1
 1b0:	79400021 	ldrh	w1, [x1]
 1b4:	2a0103e2 	mov	w2, w1
 1b8:	b9406fa1 	ldr	w1, [x29,#108]
 1bc:	1ac12041 	lsl	w1, w2, w1
 1c0:	53003c21 	uxth	w1, w1
 1c4:	79000001 	strh	w1, [x0]
 1c8:	b98063a0 	ldrsw	x0, [x29,#96]
 1cc:	d37ff800 	lsl	x0, x0, #1
 1d0:	d2800201 	mov	x1, #0x10                  	// #16
 1d4:	94000000 	bl	0 <NMemAlloc_align>
 1d8:	f90027a0 	str	x0, [x29,#72]
 1dc:	f94017a0 	ldr	x0, [x29,#40]
 1e0:	79400000 	ldrh	w0, [x0]
 1e4:	2a0003e1 	mov	w1, w0
 1e8:	b94063a0 	ldr	w0, [x29,#96]
 1ec:	4b010000 	sub	w0, w0, w1
 1f0:	b9006ba0 	str	w0, [x29,#104]
 1f4:	b90067bf 	str	wzr, [x29,#100]
 1f8:	14000009 	b	21c <modpow+0x21c>
 1fc:	b98067a0 	ldrsw	x0, [x29,#100]
 200:	d37ff800 	lsl	x0, x0, #1
 204:	f94027a1 	ldr	x1, [x29,#72]
 208:	8b000020 	add	x0, x1, x0
 20c:	7900001f 	strh	wzr, [x0]
 210:	b94067a0 	ldr	w0, [x29,#100]
 214:	11000400 	add	w0, w0, #0x1
 218:	b90067a0 	str	w0, [x29,#100]
 21c:	b94067a1 	ldr	w1, [x29,#100]
 220:	b9406ba0 	ldr	w0, [x29,#104]
 224:	6b00003f 	cmp	w1, w0
 228:	54fffeab 	b.lt	1fc <modpow+0x1fc>
 22c:	b90067bf 	str	wzr, [x29,#100]
 230:	14000016 	b	288 <modpow+0x288>
 234:	b9406ba1 	ldr	w1, [x29,#104]
 238:	b94067a0 	ldr	w0, [x29,#100]
 23c:	0b000020 	add	w0, w1, w0
 240:	93407c00 	sxtw	x0, w0
 244:	d37ff800 	lsl	x0, x0, #1
 248:	f94027a1 	ldr	x1, [x29,#72]
 24c:	8b000020 	add	x0, x1, x0
 250:	f94017a1 	ldr	x1, [x29,#40]
 254:	79400021 	ldrh	w1, [x1]
 258:	2a0103e2 	mov	w2, w1
 25c:	b94067a1 	ldr	w1, [x29,#100]
 260:	4b010041 	sub	w1, w2, w1
 264:	93407c21 	sxtw	x1, w1
 268:	d37ff821 	lsl	x1, x1, #1
 26c:	f94017a2 	ldr	x2, [x29,#40]
 270:	8b010041 	add	x1, x2, x1
 274:	79400021 	ldrh	w1, [x1]
 278:	79000001 	strh	w1, [x0]
 27c:	b94067a0 	ldr	w0, [x29,#100]
 280:	11000400 	add	w0, w0, #0x1
 284:	b90067a0 	str	w0, [x29,#100]
 288:	f94017a0 	ldr	x0, [x29,#40]
 28c:	79400000 	ldrh	w0, [x0]
 290:	2a0003e1 	mov	w1, w0
 294:	b94067a0 	ldr	w0, [x29,#100]
 298:	6b00003f 	cmp	w1, w0
 29c:	54fffccc 	b.gt	234 <modpow+0x234>
 2a0:	b98063a0 	ldrsw	x0, [x29,#96]
 2a4:	d37ef400 	lsl	x0, x0, #2
 2a8:	d2800201 	mov	x1, #0x10                  	// #16
 2ac:	94000000 	bl	0 <NMemAlloc_align>
 2b0:	f9003fa0 	str	x0, [x29,#120]
 2b4:	b98063a0 	ldrsw	x0, [x29,#96]
 2b8:	d37ef400 	lsl	x0, x0, #2
 2bc:	d2800201 	mov	x1, #0x10                  	// #16
 2c0:	94000000 	bl	0 <NMemAlloc_align>
 2c4:	f9003ba0 	str	x0, [x29,#112]
 2c8:	b9006bbf 	str	wzr, [x29,#104]
 2cc:	14000009 	b	2f0 <modpow+0x2f0>
 2d0:	b9806ba0 	ldrsw	x0, [x29,#104]
 2d4:	d37ff800 	lsl	x0, x0, #1
 2d8:	f9403fa1 	ldr	x1, [x29,#120]
 2dc:	8b000020 	add	x0, x1, x0
 2e0:	7900001f 	strh	wzr, [x0]
 2e4:	b9406ba0 	ldr	w0, [x29,#104]
 2e8:	11000400 	add	w0, w0, #0x1
 2ec:	b9006ba0 	str	w0, [x29,#104]
 2f0:	b94063a0 	ldr	w0, [x29,#96]
 2f4:	531f7801 	lsl	w1, w0, #1
 2f8:	b9406ba0 	ldr	w0, [x29,#104]
 2fc:	6b00003f 	cmp	w1, w0
 300:	54fffe8c 	b.gt	2d0 <modpow+0x2d0>
 304:	b98063a0 	ldrsw	x0, [x29,#96]
 308:	d37ef400 	lsl	x0, x0, #2
 30c:	d1000800 	sub	x0, x0, #0x2
 310:	f9403fa1 	ldr	x1, [x29,#120]
 314:	8b000020 	add	x0, x1, x0
 318:	52800021 	mov	w1, #0x1                   	// #1
 31c:	79000001 	strh	w1, [x0]
 320:	b9006bbf 	str	wzr, [x29,#104]
 324:	528001e0 	mov	w0, #0xf                   	// #15
 328:	b90067a0 	str	w0, [x29,#100]
 32c:	1400000c 	b	35c <modpow+0x35c>
 330:	b94067a0 	ldr	w0, [x29,#100]
 334:	51000400 	sub	w0, w0, #0x1
 338:	b90067a0 	str	w0, [x29,#100]
 33c:	b94067a0 	ldr	w0, [x29,#100]
 340:	6b1f001f 	cmp	w0, wzr
 344:	540000ca 	b.ge	35c <modpow+0x35c>
 348:	b9406ba0 	ldr	w0, [x29,#104]
 34c:	11000400 	add	w0, w0, #0x1
 350:	b9006ba0 	str	w0, [x29,#104]
 354:	528001e0 	mov	w0, #0xf                   	// #15
 358:	b90067a0 	str	w0, [x29,#100]
 35c:	f94013a0 	ldr	x0, [x29,#32]
 360:	79400000 	ldrh	w0, [x0]
 364:	2a0003e1 	mov	w1, w0
 368:	b9406ba0 	ldr	w0, [x29,#104]
 36c:	6b00003f 	cmp	w1, w0
 370:	5400022d 	b.le	3b4 <modpow+0x3b4>
 374:	f94013a0 	ldr	x0, [x29,#32]
 378:	79400000 	ldrh	w0, [x0]
 37c:	2a0003e1 	mov	w1, w0
 380:	b9406ba0 	ldr	w0, [x29,#104]
 384:	4b000020 	sub	w0, w1, w0
 388:	93407c00 	sxtw	x0, w0
 38c:	d37ff800 	lsl	x0, x0, #1
 390:	f94013a1 	ldr	x1, [x29,#32]
 394:	8b000020 	add	x0, x1, x0
 398:	79400000 	ldrh	w0, [x0]
 39c:	2a0003e1 	mov	w1, w0
 3a0:	b94067a0 	ldr	w0, [x29,#100]
 3a4:	1ac02820 	asr	w0, w1, w0
 3a8:	12000000 	and	w0, w0, #0x1
 3ac:	6b1f001f 	cmp	w0, wzr
 3b0:	54fffc00 	b.eq	330 <modpow+0x330>
 3b4:	1400004b 	b	4e0 <modpow+0x4e0>
 3b8:	14000042 	b	4c0 <modpow+0x4c0>
 3bc:	b98063a0 	ldrsw	x0, [x29,#96]
 3c0:	d37ff800 	lsl	x0, x0, #1
 3c4:	f9403fa1 	ldr	x1, [x29,#120]
 3c8:	8b000024 	add	x4, x1, x0
 3cc:	b98063a0 	ldrsw	x0, [x29,#96]
 3d0:	d37ff800 	lsl	x0, x0, #1
 3d4:	f9403fa1 	ldr	x1, [x29,#120]
 3d8:	8b000020 	add	x0, x1, x0
 3dc:	b94063a3 	ldr	w3, [x29,#96]
 3e0:	f9403ba2 	ldr	x2, [x29,#112]
 3e4:	aa0003e1 	mov	x1, x0
 3e8:	aa0403e0 	mov	x0, x4
 3ec:	94000000 	bl	0 <modpow>
 3f0:	b94063a0 	ldr	w0, [x29,#96]
 3f4:	531f7800 	lsl	w0, w0, #1
 3f8:	52800005 	mov	w5, #0x0                   	// #0
 3fc:	d2800004 	mov	x4, #0x0                   	// #0
 400:	b94063a3 	ldr	w3, [x29,#96]
 404:	f9402fa2 	ldr	x2, [x29,#88]
 408:	2a0003e1 	mov	w1, w0
 40c:	f9403ba0 	ldr	x0, [x29,#112]
 410:	94000000 	bl	0 <modpow>
 414:	f94013a0 	ldr	x0, [x29,#32]
 418:	79400000 	ldrh	w0, [x0]
 41c:	2a0003e1 	mov	w1, w0
 420:	b9406ba0 	ldr	w0, [x29,#104]
 424:	4b000020 	sub	w0, w1, w0
 428:	93407c00 	sxtw	x0, w0
 42c:	d37ff800 	lsl	x0, x0, #1
 430:	f94013a1 	ldr	x1, [x29,#32]
 434:	8b000020 	add	x0, x1, x0
 438:	79400000 	ldrh	w0, [x0]
 43c:	2a0003e1 	mov	w1, w0
 440:	b94067a0 	ldr	w0, [x29,#100]
 444:	1ac02820 	asr	w0, w1, w0
 448:	12000000 	and	w0, w0, #0x1
 44c:	6b1f001f 	cmp	w0, wzr
 450:	54000260 	b.eq	49c <modpow+0x49c>
 454:	b98063a0 	ldrsw	x0, [x29,#96]
 458:	d37ff800 	lsl	x0, x0, #1
 45c:	f9403ba1 	ldr	x1, [x29,#112]
 460:	8b000020 	add	x0, x1, x0
 464:	b94063a3 	ldr	w3, [x29,#96]
 468:	f9403fa2 	ldr	x2, [x29,#120]
 46c:	f94027a1 	ldr	x1, [x29,#72]
 470:	94000000 	bl	0 <modpow>
 474:	b94063a0 	ldr	w0, [x29,#96]
 478:	531f7800 	lsl	w0, w0, #1
 47c:	52800005 	mov	w5, #0x0                   	// #0
 480:	d2800004 	mov	x4, #0x0                   	// #0
 484:	b94063a3 	ldr	w3, [x29,#96]
 488:	f9402fa2 	ldr	x2, [x29,#88]
 48c:	2a0003e1 	mov	w1, w0
 490:	f9403fa0 	ldr	x0, [x29,#120]
 494:	94000000 	bl	0 <modpow>
 498:	14000007 	b	4b4 <modpow+0x4b4>
 49c:	f9403fa0 	ldr	x0, [x29,#120]
 4a0:	f90023a0 	str	x0, [x29,#64]
 4a4:	f9403ba0 	ldr	x0, [x29,#112]
 4a8:	f9003fa0 	str	x0, [x29,#120]
 4ac:	f94023a0 	ldr	x0, [x29,#64]
 4b0:	f9003ba0 	str	x0, [x29,#112]
 4b4:	b94067a0 	ldr	w0, [x29,#100]
 4b8:	51000400 	sub	w0, w0, #0x1
 4bc:	b90067a0 	str	w0, [x29,#100]
 4c0:	b94067a0 	ldr	w0, [x29,#100]
 4c4:	6b1f001f 	cmp	w0, wzr
 4c8:	54fff7aa 	b.ge	3bc <modpow+0x3bc>
 4cc:	b9406ba0 	ldr	w0, [x29,#104]
 4d0:	11000400 	add	w0, w0, #0x1
 4d4:	b9006ba0 	str	w0, [x29,#104]
 4d8:	528001e0 	mov	w0, #0xf                   	// #15
 4dc:	b90067a0 	str	w0, [x29,#100]
 4e0:	f94013a0 	ldr	x0, [x29,#32]
 4e4:	79400000 	ldrh	w0, [x0]
 4e8:	2a0003e1 	mov	w1, w0
 4ec:	b9406ba0 	ldr	w0, [x29,#104]
 4f0:	6b00003f 	cmp	w1, w0
 4f4:	54fff62c 	b.gt	3b8 <modpow+0x3b8>
 4f8:	b9406fa0 	ldr	w0, [x29,#108]
 4fc:	6b1f001f 	cmp	w0, wzr
 500:	54000da0 	b.eq	6b4 <modpow+0x6b4>
 504:	b94063a0 	ldr	w0, [x29,#96]
 508:	51000400 	sub	w0, w0, #0x1
 50c:	b9006ba0 	str	w0, [x29,#104]
 510:	14000021 	b	594 <modpow+0x594>
 514:	b9806ba0 	ldrsw	x0, [x29,#104]
 518:	d37ff800 	lsl	x0, x0, #1
 51c:	f9403fa1 	ldr	x1, [x29,#120]
 520:	8b000020 	add	x0, x1, x0
 524:	b9806ba1 	ldrsw	x1, [x29,#104]
 528:	d37ff821 	lsl	x1, x1, #1
 52c:	f9403fa2 	ldr	x2, [x29,#120]
 530:	8b010041 	add	x1, x2, x1
 534:	79400021 	ldrh	w1, [x1]
 538:	2a0103e2 	mov	w2, w1
 53c:	b9406fa1 	ldr	w1, [x29,#108]
 540:	1ac12041 	lsl	w1, w2, w1
 544:	13003c22 	sxth	w2, w1
 548:	b9806ba1 	ldrsw	x1, [x29,#104]
 54c:	91000421 	add	x1, x1, #0x1
 550:	d37ff821 	lsl	x1, x1, #1
 554:	f9403fa3 	ldr	x3, [x29,#120]
 558:	8b010061 	add	x1, x3, x1
 55c:	79400021 	ldrh	w1, [x1]
 560:	2a0103e4 	mov	w4, w1
 564:	52800203 	mov	w3, #0x10                  	// #16
 568:	b9406fa1 	ldr	w1, [x29,#108]
 56c:	4b010061 	sub	w1, w3, w1
 570:	1ac12881 	asr	w1, w4, w1
 574:	13003c21 	sxth	w1, w1
 578:	2a010041 	orr	w1, w2, w1
 57c:	13003c21 	sxth	w1, w1
 580:	53003c21 	uxth	w1, w1
 584:	79000001 	strh	w1, [x0]
 588:	b9406ba0 	ldr	w0, [x29,#104]
 58c:	11000400 	add	w0, w0, #0x1
 590:	b9006ba0 	str	w0, [x29,#104]
 594:	b94063a0 	ldr	w0, [x29,#96]
 598:	531f7800 	lsl	w0, w0, #1
 59c:	51000401 	sub	w1, w0, #0x1
 5a0:	b9406ba0 	ldr	w0, [x29,#104]
 5a4:	6b00003f 	cmp	w1, w0
 5a8:	54fffb6c 	b.gt	514 <modpow+0x514>
 5ac:	b98063a0 	ldrsw	x0, [x29,#96]
 5b0:	d37ef400 	lsl	x0, x0, #2
 5b4:	d1000800 	sub	x0, x0, #0x2
 5b8:	f9403fa1 	ldr	x1, [x29,#120]
 5bc:	8b000020 	add	x0, x1, x0
 5c0:	b98063a1 	ldrsw	x1, [x29,#96]
 5c4:	d37ef421 	lsl	x1, x1, #2
 5c8:	d1000821 	sub	x1, x1, #0x2
 5cc:	f9403fa2 	ldr	x2, [x29,#120]
 5d0:	8b010041 	add	x1, x2, x1
 5d4:	79400021 	ldrh	w1, [x1]
 5d8:	2a0103e2 	mov	w2, w1
 5dc:	b9406fa1 	ldr	w1, [x29,#108]
 5e0:	1ac12041 	lsl	w1, w2, w1
 5e4:	53003c21 	uxth	w1, w1
 5e8:	79000001 	strh	w1, [x0]
 5ec:	b94063a0 	ldr	w0, [x29,#96]
 5f0:	531f7800 	lsl	w0, w0, #1
 5f4:	52800005 	mov	w5, #0x0                   	// #0
 5f8:	d2800004 	mov	x4, #0x0                   	// #0
 5fc:	b94063a3 	ldr	w3, [x29,#96]
 600:	f9402fa2 	ldr	x2, [x29,#88]
 604:	2a0003e1 	mov	w1, w0
 608:	f9403fa0 	ldr	x0, [x29,#120]
 60c:	94000000 	bl	0 <modpow>
 610:	b94063a0 	ldr	w0, [x29,#96]
 614:	531f7800 	lsl	w0, w0, #1
 618:	51000400 	sub	w0, w0, #0x1
 61c:	b9006ba0 	str	w0, [x29,#104]
 620:	14000021 	b	6a4 <modpow+0x6a4>
 624:	b9806ba0 	ldrsw	x0, [x29,#104]
 628:	d37ff800 	lsl	x0, x0, #1
 62c:	f9403fa1 	ldr	x1, [x29,#120]
 630:	8b000020 	add	x0, x1, x0
 634:	b9806ba1 	ldrsw	x1, [x29,#104]
 638:	d37ff821 	lsl	x1, x1, #1
 63c:	f9403fa2 	ldr	x2, [x29,#120]
 640:	8b010041 	add	x1, x2, x1
 644:	79400021 	ldrh	w1, [x1]
 648:	2a0103e2 	mov	w2, w1
 64c:	b9406fa1 	ldr	w1, [x29,#108]
 650:	1ac12841 	asr	w1, w2, w1
 654:	13003c22 	sxth	w2, w1
 658:	b9806ba1 	ldrsw	x1, [x29,#104]
 65c:	d37ff821 	lsl	x1, x1, #1
 660:	d1000821 	sub	x1, x1, #0x2
 664:	f9403fa3 	ldr	x3, [x29,#120]
 668:	8b010061 	add	x1, x3, x1
 66c:	79400021 	ldrh	w1, [x1]
 670:	2a0103e4 	mov	w4, w1
 674:	52800203 	mov	w3, #0x10                  	// #16
 678:	b9406fa1 	ldr	w1, [x29,#108]
 67c:	4b010061 	sub	w1, w3, w1
 680:	1ac12081 	lsl	w1, w4, w1
 684:	13003c21 	sxth	w1, w1
 688:	2a010041 	orr	w1, w2, w1
 68c:	13003c21 	sxth	w1, w1
 690:	53003c21 	uxth	w1, w1
 694:	79000001 	strh	w1, [x0]
 698:	b9406ba0 	ldr	w0, [x29,#104]
 69c:	51000400 	sub	w0, w0, #0x1
 6a0:	b9006ba0 	str	w0, [x29,#104]
 6a4:	b9406ba1 	ldr	w1, [x29,#104]
 6a8:	b94063a0 	ldr	w0, [x29,#96]
 6ac:	6b00003f 	cmp	w1, w0
 6b0:	54fffbaa 	b.ge	624 <modpow+0x624>
 6b4:	f9400fa0 	ldr	x0, [x29,#24]
 6b8:	79400000 	ldrh	w0, [x0]
 6bc:	94000000 	bl	0 <modpow>
 6c0:	f9001fa0 	str	x0, [x29,#56]
 6c4:	b9006bbf 	str	wzr, [x29,#104]
 6c8:	14000016 	b	720 <modpow+0x720>
 6cc:	f9401fa0 	ldr	x0, [x29,#56]
 6d0:	79400000 	ldrh	w0, [x0]
 6d4:	2a0003e1 	mov	w1, w0
 6d8:	b9406ba0 	ldr	w0, [x29,#104]
 6dc:	4b000020 	sub	w0, w1, w0
 6e0:	93407c00 	sxtw	x0, w0
 6e4:	d37ff800 	lsl	x0, x0, #1
 6e8:	f9401fa1 	ldr	x1, [x29,#56]
 6ec:	8b000020 	add	x0, x1, x0
 6f0:	b9406ba2 	ldr	w2, [x29,#104]
 6f4:	b94063a1 	ldr	w1, [x29,#96]
 6f8:	0b010041 	add	w1, w2, w1
 6fc:	93407c21 	sxtw	x1, w1
 700:	d37ff821 	lsl	x1, x1, #1
 704:	f9403fa2 	ldr	x2, [x29,#120]
 708:	8b010041 	add	x1, x2, x1
 70c:	79400021 	ldrh	w1, [x1]
 710:	79000001 	strh	w1, [x0]
 714:	b9406ba0 	ldr	w0, [x29,#104]
 718:	11000400 	add	w0, w0, #0x1
 71c:	b9006ba0 	str	w0, [x29,#104]
 720:	b9406ba1 	ldr	w1, [x29,#104]
 724:	b94063a0 	ldr	w0, [x29,#96]
 728:	6b00003f 	cmp	w1, w0
 72c:	54fffd0b 	b.lt	6cc <modpow+0x6cc>
 730:	14000007 	b	74c <modpow+0x74c>
 734:	f9401fa0 	ldr	x0, [x29,#56]
 738:	79400000 	ldrh	w0, [x0]
 73c:	51000400 	sub	w0, w0, #0x1
 740:	53003c01 	uxth	w1, w0
 744:	f9401fa0 	ldr	x0, [x29,#56]
 748:	79000001 	strh	w1, [x0]
 74c:	f9401fa0 	ldr	x0, [x29,#56]
 750:	79400000 	ldrh	w0, [x0]
 754:	7100041f 	cmp	w0, #0x1
 758:	54000149 	b.ls	780 <modpow+0x780>
 75c:	f9401fa0 	ldr	x0, [x29,#56]
 760:	79400000 	ldrh	w0, [x0]
 764:	53003c00 	uxth	w0, w0
 768:	d37ff800 	lsl	x0, x0, #1
 76c:	f9401fa1 	ldr	x1, [x29,#56]
 770:	8b000020 	add	x0, x1, x0
 774:	79400000 	ldrh	w0, [x0]
 778:	6b1f001f 	cmp	w0, wzr
 77c:	54fffdc0 	b.eq	734 <modpow+0x734>
 780:	b9006bbf 	str	wzr, [x29,#104]
 784:	14000009 	b	7a8 <modpow+0x7a8>
 788:	b9806ba0 	ldrsw	x0, [x29,#104]
 78c:	d37ff800 	lsl	x0, x0, #1
 790:	f9403fa1 	ldr	x1, [x29,#120]
 794:	8b000020 	add	x0, x1, x0
 798:	7900001f 	strh	wzr, [x0]
 79c:	b9406ba0 	ldr	w0, [x29,#104]
 7a0:	11000400 	add	w0, w0, #0x1
 7a4:	b9006ba0 	str	w0, [x29,#104]
 7a8:	b94063a0 	ldr	w0, [x29,#96]
 7ac:	531f7801 	lsl	w1, w0, #1
 7b0:	b9406ba0 	ldr	w0, [x29,#104]
 7b4:	6b00003f 	cmp	w1, w0
 7b8:	54fffe8c 	b.gt	788 <modpow+0x788>
 7bc:	f9403fa0 	ldr	x0, [x29,#120]
 7c0:	94000000 	bl	0 <NMemFree>
 7c4:	b9006bbf 	str	wzr, [x29,#104]
 7c8:	14000009 	b	7ec <modpow+0x7ec>
 7cc:	b9806ba0 	ldrsw	x0, [x29,#104]
 7d0:	d37ff800 	lsl	x0, x0, #1
 7d4:	f9403ba1 	ldr	x1, [x29,#112]
 7d8:	8b000020 	add	x0, x1, x0
 7dc:	7900001f 	strh	wzr, [x0]
 7e0:	b9406ba0 	ldr	w0, [x29,#104]
 7e4:	11000400 	add	w0, w0, #0x1
 7e8:	b9006ba0 	str	w0, [x29,#104]
 7ec:	b94063a0 	ldr	w0, [x29,#96]
 7f0:	531f7801 	lsl	w1, w0, #1
 7f4:	b9406ba0 	ldr	w0, [x29,#104]
 7f8:	6b00003f 	cmp	w1, w0
 7fc:	54fffe8c 	b.gt	7cc <modpow+0x7cc>
 800:	f9403ba0 	ldr	x0, [x29,#112]
 804:	94000000 	bl	0 <NMemFree>
 808:	b9006bbf 	str	wzr, [x29,#104]
 80c:	14000009 	b	830 <modpow+0x830>
 810:	b9806ba0 	ldrsw	x0, [x29,#104]
 814:	d37ff800 	lsl	x0, x0, #1
 818:	f9402fa1 	ldr	x1, [x29,#88]
 81c:	8b000020 	add	x0, x1, x0
 820:	7900001f 	strh	wzr, [x0]
 824:	b9406ba0 	ldr	w0, [x29,#104]
 828:	11000400 	add	w0, w0, #0x1
 82c:	b9006ba0 	str	w0, [x29,#104]
 830:	b9406ba1 	ldr	w1, [x29,#104]
 834:	b94063a0 	ldr	w0, [x29,#96]
 838:	6b00003f 	cmp	w1, w0
 83c:	54fffeab 	b.lt	810 <modpow+0x810>
 840:	f9402fa0 	ldr	x0, [x29,#88]
 844:	94000000 	bl	0 <NMemFree>
 848:	b9006bbf 	str	wzr, [x29,#104]
 84c:	14000009 	b	870 <modpow+0x870>
 850:	b9806ba0 	ldrsw	x0, [x29,#104]
 854:	d37ff800 	lsl	x0, x0, #1
 858:	f94027a1 	ldr	x1, [x29,#72]
 85c:	8b000020 	add	x0, x1, x0
 860:	7900001f 	strh	wzr, [x0]
 864:	b9406ba0 	ldr	w0, [x29,#104]
 868:	11000400 	add	w0, w0, #0x1
 86c:	b9006ba0 	str	w0, [x29,#104]
 870:	b9406ba1 	ldr	w1, [x29,#104]
 874:	b94063a0 	ldr	w0, [x29,#96]
 878:	6b00003f 	cmp	w1, w0
 87c:	54fffeab 	b.lt	850 <modpow+0x850>
 880:	f94027a0 	ldr	x0, [x29,#72]
 884:	94000000 	bl	0 <NMemFree>
 888:	f9401fa0 	ldr	x0, [x29,#56]
 88c:	a8c87bfd 	ldp	x29, x30, [sp],#128
 890:	d65f03c0 	ret
